; Function Attrs: nounwind uwtable
define internal i32 @_functools_traverse(ptr noundef readonly captures(none) %0, ptr noundef readonly captures(none) %1, ptr noundef %2) #0 {
  %4 = getelementptr i8, ptr %0, i64 32
  %.val = load ptr, ptr %4, align 8, !tbaa !4
  %5 = load ptr, ptr %.val, align 8, !tbaa !13
  %.not = icmp eq ptr %5, null
  br i1 %.not, label %8, label %6

6:                                                ; preds = %3
  %7 = tail call i32 %1(ptr noundef nonnull %5, ptr noundef %2) #9
  %.not64 = icmp eq i32 %7, 0
  br i1 %.not64, label %8, label %34

8:                                                ; preds = %3, %6
  %9 = getelementptr inbounds nuw i8, ptr %.val, i64 8
  %10 = load ptr, ptr %9, align 8, !tbaa !15
  %.not65 = icmp eq ptr %10, null
  br i1 %.not65, label %13, label %11

11:                                               ; preds = %8
  %12 = tail call i32 %1(ptr noundef nonnull %10, ptr noundef %2) #9
  %.not66 = icmp eq i32 %12, 0
  br i1 %.not66, label %13, label %34

13:                                               ; preds = %8, %11
  %14 = getelementptr inbounds nuw i8, ptr %.val, i64 16
  %15 = load ptr, ptr %14, align 8, !tbaa !16
  %.not67 = icmp eq ptr %15, null
  br i1 %.not67, label %18, label %16

16:                                               ; preds = %13
  %17 = tail call i32 %1(ptr noundef nonnull %15, ptr noundef %2) #9
  %.not68 = icmp eq i32 %17, 0
  br i1 %.not68, label %18, label %34

18:                                               ; preds = %13, %16
  %19 = getelementptr inbounds nuw i8, ptr %.val, i64 24
  %20 = load ptr, ptr %19, align 8, !tbaa !17
  %.not69 = icmp eq ptr %20, null
  br i1 %.not69, label %23, label %21

21:                                               ; preds = %18
  %22 = tail call i32 %1(ptr noundef nonnull %20, ptr noundef %2) #9
  %.not70 = icmp eq i32 %22, 0
  br i1 %.not70, label %23, label %34

23:                                               ; preds = %18, %21
  %24 = getelementptr inbounds nuw i8, ptr %.val, i64 32
  %25 = load ptr, ptr %24, align 8, !tbaa !18
  %.not71 = icmp eq ptr %25, null
  br i1 %.not71, label %28, label %26

26:                                               ; preds = %23
  %27 = tail call i32 %1(ptr noundef nonnull %25, ptr noundef %2) #9
  %.not72 = icmp eq i32 %27, 0
  br i1 %.not72, label %28, label %34

28:                                               ; preds = %23, %26
  %29 = getelementptr inbounds nuw i8, ptr %.val, i64 40
  %30 = load ptr, ptr %29, align 8, !tbaa !19
  %.not73 = icmp eq ptr %30, null
  br i1 %.not73, label %33, label %31

31:                                               ; preds = %28
  %32 = tail call i32 %1(ptr noundef nonnull %30, ptr noundef %2) #9
  %.not74 = icmp eq i32 %32, 0
  br i1 %.not74, label %33, label %34

33:                                               ; preds = %31, %28
  br label %34

34:                                               ; preds = %6, %11, %16, %21, %26, %31, %33
  %.1 = phi i32 [ 0, %33 ], [ %32, %31 ], [ %27, %26 ], [ %22, %21 ], [ %17, %16 ], [ %12, %11 ], [ %7, %6 ]
  ret i32 %.1
}